target datalayout = "e-m:e-p270:32:32-p271:32:32-p272:64:64-i64:64-i128:128-f80:128-n8:16:32:64-S128"
target triple = "x86_64-pc-linux-gnu"

%struct.thread_event = type { i64, i32 }

@timeline_cursor = internal global i32 0, align 4
@event_timeline = internal global [1024 x %struct.thread_event] zeroinitializer, align 16

; Function Attrs: nounwind sspstrong uwtable
define internal void @event_timeline_gc_mark(ptr noundef %0) #0 {
  %2 = alloca ptr, align 8
  %3 = alloca i32, align 4
  store ptr %0, ptr %2, align 8, !tbaa !21
  call void @llvm.lifetime.start.p0(i64 4, ptr %3) #11
  store i32 0, ptr %3, align 4, !tbaa !13
  br label %4

4:                                                ; preds = %14, %1
  %5 = load i32, ptr %3, align 4, !tbaa !13
  %6 = load i32, ptr @timeline_cursor, align 4, !tbaa !13
  %7 = icmp ult i32 %5, %6
  br i1 %7, label %8, label %17

8:                                                ; preds = %4
  %9 = load i32, ptr %3, align 4, !tbaa !13
  %10 = zext i32 %9 to i64
  %11 = getelementptr inbounds nuw [1024 x %struct.thread_event], ptr @event_timeline, i64 0, i64 %10
  %12 = getelementptr inbounds nuw %struct.thread_event, ptr %11, i32 0, i32 0
  %13 = load i64, ptr %12, align 16, !tbaa !15
  call void @rb_gc_mark(i64 noundef %13)
  br label %14

14:                                               ; preds = %8
  %15 = load i32, ptr %3, align 4, !tbaa !13
  %16 = add i32 %15, 1
  store i32 %16, ptr %3, align 4, !tbaa !13
  br label %4, !llvm.loop !22

17:                                               ; preds = %4
  call void @llvm.lifetime.end.p0(i64 4, ptr %3) #11
  ret void
}