; Function Attrs: nounwind sspstrong uwtable
define internal void @event_timeline_gc_mark(ptr readnone captures(none) %0) #0 {
  %2 = load i32, ptr @timeline_cursor, align 4, !tbaa !13
  %.not = icmp eq i32 %2, 0
  br i1 %.not, label %._crit_edge, label %.lr.ph

.lr.ph:                                           ; preds = %1, %.lr.ph
  %indvars.iv = phi i64 [ %indvars.iv.next, %.lr.ph ], [ 0, %1 ]
  %3 = getelementptr inbounds nuw [1024 x %struct.thread_event], ptr @event_timeline, i64 0, i64 %indvars.iv
  %4 = load i64, ptr %3, align 16, !tbaa !15
  tail call void @rb_gc_mark(i64 noundef %4) #5
  %indvars.iv.next = add nuw nsw i64 %indvars.iv, 1
  %5 = load i32, ptr @timeline_cursor, align 4, !tbaa !13
  %6 = zext i32 %5 to i64
  %7 = icmp samesign ult i64 %indvars.iv.next, %6
  br i1 %7, label %.lr.ph, label %._crit_edge, !llvm.loop !22

._crit_edge:                                      ; preds = %.lr.ph, %1
  ret void
}